target datalayout = "e-m:e-p270:32:32-p271:32:32-p272:64:64-i64:64-i128:128-f80:128-n8:16:32:64-S128"
target triple = "x86_64-unknown-linux-gnu"

%"class.facebook::velox::variant" = type { i8, ptr }

@_ZTISt16invalid_argument = external constant ptr
@.str.1 = private unnamed_addr constant [22 x i8] c"missing variant value\00", align 1

; Function Attrs: mustprogress noreturn uwtable
define void @_ZNK8facebook5velox7variant18throwCheckPtrErrorEv(ptr noundef nonnull align 8 dereferenceable(16) %this) #3 align 2 personality ptr @__gxx_personality_v0 {
entry:
  %this.addr = alloca ptr, align 8
  %exn.slot = alloca ptr, align 8
  %ehselector.slot = alloca i32, align 4
  store ptr %this, ptr %this.addr, align 8
  %exception = call ptr @__cxa_allocate_exception(i64 16) #9
  invoke void @_ZNSt16invalid_argumentC1EPKc(ptr noundef nonnull align 8 dereferenceable(16) %exception, ptr noundef @.str.1)
          to label %invoke.cont unwind label %lpad

invoke.cont:                                      ; preds = %entry
  call void @__cxa_throw(ptr %exception, ptr @_ZTISt16invalid_argument, ptr @_ZNSt16invalid_argumentD1Ev) #23
  unreachable

lpad:                                             ; preds = %entry
  %0 = landingpad { ptr, i32 }
          cleanup
  %1 = extractvalue { ptr, i32 } %0, 0
  store ptr %1, ptr %exn.slot, align 8
  %2 = extractvalue { ptr, i32 } %0, 1
  store i32 %2, ptr %ehselector.slot, align 4
  call void @__cxa_free_exception(ptr %exception) #9
  br label %eh.resume

eh.resume:                                        ; preds = %lpad
  %exn = load ptr, ptr %exn.slot, align 8
  %sel = load i32, ptr %ehselector.slot, align 4
  %lpad.val = insertvalue { ptr, i32 } poison, ptr %exn, 0
  %lpad.val2 = insertvalue { ptr, i32 } %lpad.val, i32 %sel, 1
  resume { ptr, i32 } %lpad.val2
}

; Function Attrs: mustprogress uwtable
define linkonce_odr void @_ZNK8facebook5velox7variant8checkPtrEv(ptr noundef nonnull align 8 dereferenceable(16) %this) #0 comdat align 2 {
entry:
  %this.addr = alloca ptr, align 8
  store ptr %this, ptr %this.addr, align 8
  %this1 = load ptr, ptr %this.addr, align 8
  %ptr_ = getelementptr inbounds %"class.facebook::velox::variant", ptr %this1, i32 0, i32 1
  %0 = load ptr, ptr %ptr_, align 8
  %cmp = icmp eq ptr %0, null
  br i1 %cmp, label %if.then, label %if.end

if.then:                                          ; preds = %entry
  call void @_ZNK8facebook5velox7variant18throwCheckPtrErrorEv(ptr noundef nonnull align 8 dereferenceable(16) %this1) #23
  unreachable

if.end:                                           ; preds = %entry
  ret void
}

; Function Attrs: mustprogress uwtable
define linkonce_odr void @_ZNK8facebook5velox7variant11checkIsKindENS0_8TypeKindE(ptr noundef nonnull align 8 dereferenceable(16) %this, i8 noundef signext %kind) #0 comdat align 2 {
entry:
  %this.addr = alloca ptr, align 8
  %kind.addr = alloca i8, align 1
  store ptr %this, ptr %this.addr, align 8
  store i8 %kind, ptr %kind.addr, align 1
  %this1 = load ptr, ptr %this.addr, align 8
  %kind_ = getelementptr inbounds %"class.facebook::velox::variant", ptr %this1, i32 0, i32 0
  %0 = load i8, ptr %kind_, align 8
  %1 = load i8, ptr %kind.addr, align 1
  %cmp = icmp ne i8 %0, %1
  br i1 %cmp, label %if.then, label %if.end

if.then:                                          ; preds = %entry
  %2 = load i8, ptr %kind.addr, align 1
  call void @_ZNK8facebook5velox7variant21throwCheckIsKindErrorENS0_8TypeKindE(ptr noundef nonnull align 8 dereferenceable(16) %this1, i8 noundef signext %2) #23
  unreachable

if.end:                                           ; preds = %entry
  ret void
}

; Function Attrs: mustprogress nounwind uwtable
define linkonce_odr noundef nonnull align 8 dereferenceable(8) ptr @_ZSt3maxIdERKT_S2_S2_(ptr noundef nonnull align 8 dereferenceable(8) %__a, ptr noundef nonnull align 8 dereferenceable(8) %__b) #4 comdat {
entry:
  %retval = alloca ptr, align 8
  %__a.addr = alloca ptr, align 8
  %__b.addr = alloca ptr, align 8
  store ptr %__a, ptr %__a.addr, align 8
  store ptr %__b, ptr %__b.addr, align 8
  %0 = load ptr, ptr %__a.addr, align 8
  %1 = load double, ptr %0, align 8
  %2 = load ptr, ptr %__b.addr, align 8
  %3 = load double, ptr %2, align 8
  %cmp = fcmp olt double %1, %3
  br i1 %cmp, label %if.then, label %if.end

if.then:                                          ; preds = %entry
  %4 = load ptr, ptr %__b.addr, align 8
  store ptr %4, ptr %retval, align 8
  br label %return

if.end:                                           ; preds = %entry
  %5 = load ptr, ptr %__a.addr, align 8
  store ptr %5, ptr %retval, align 8
  br label %return

return:                                           ; preds = %if.end, %if.then
  %6 = load ptr, ptr %retval, align 8
  ret ptr %6
}

; Function Attrs: mustprogress nounwind uwtable
define linkonce_odr noundef double @_ZSt3absd(double noundef %__x) #4 comdat {
entry:
  %__x.addr = alloca double, align 8
  store double %__x, ptr %__x.addr, align 8
  %0 = load double, ptr %__x.addr, align 8
  %1 = call double @llvm.fabs.f64(double %0)
  ret double %1
}

; Function Attrs: mustprogress nounwind uwtable
define linkonce_odr noundef zeroext i1 @_ZSt5isinfd(double noundef %__x) #4 comdat {
entry:
  %__x.addr = alloca double, align 8
  store double %__x, ptr %__x.addr, align 8
  %0 = load double, ptr %__x.addr, align 8
  %1 = call i1 @llvm.is.fpclass.f64(double %0, i32 516)
  ret i1 %1
}

; Function Attrs: mustprogress nounwind uwtable
define linkonce_odr noundef zeroext i1 @_ZSt5isnand(double noundef %__x) #4 comdat {
entry:
  %__x.addr = alloca double, align 8
  store double %__x, ptr %__x.addr, align 8
  %0 = load double, ptr %__x.addr, align 8
  %1 = call i1 @llvm.is.fpclass.f64(double %0, i32 3)
  ret i1 %1
}

; Function Attrs: mustprogress uwtable
define linkonce_odr noundef nonnull align 8 dereferenceable(8) ptr @_ZNK8facebook5velox7variant5valueILNS0_8TypeKindE6EEERKDav(ptr noundef nonnull align 8 dereferenceable(16) %this) #0 comdat align 2 {
entry:
  %this.addr = alloca ptr, align 8
  store ptr %this, ptr %this.addr, align 8
  %this1 = load ptr, ptr %this.addr, align 8
  call void @_ZNK8facebook5velox7variant11checkIsKindENS0_8TypeKindE(ptr noundef nonnull align 8 dereferenceable(16) %this1, i8 noundef signext 6)
  call void @_ZNK8facebook5velox7variant8checkPtrEv(ptr noundef nonnull align 8 dereferenceable(16) %this1)
  %ptr_ = getelementptr inbounds %"class.facebook::velox::variant", ptr %this1, i32 0, i32 1
  %0 = load ptr, ptr %ptr_, align 8
  ret ptr %0
}

; Function Attrs: mustprogress nounwind uwtable
define linkonce_odr noundef nonnull align 4 dereferenceable(4) ptr @_ZSt3maxIfERKT_S2_S2_(ptr noundef nonnull align 4 dereferenceable(4) %__a, ptr noundef nonnull align 4 dereferenceable(4) %__b) #4 comdat {
entry:
  %retval = alloca ptr, align 8
  %__a.addr = alloca ptr, align 8
  %__b.addr = alloca ptr, align 8
  store ptr %__a, ptr %__a.addr, align 8
  store ptr %__b, ptr %__b.addr, align 8
  %0 = load ptr, ptr %__a.addr, align 8
  %1 = load float, ptr %0, align 4
  %2 = load ptr, ptr %__b.addr, align 8
  %3 = load float, ptr %2, align 4
  %cmp = fcmp olt float %1, %3
  br i1 %cmp, label %if.then, label %if.end

if.then:                                          ; preds = %entry
  %4 = load ptr, ptr %__b.addr, align 8
  store ptr %4, ptr %retval, align 8
  br label %return

if.end:                                           ; preds = %entry
  %5 = load ptr, ptr %__a.addr, align 8
  store ptr %5, ptr %retval, align 8
  br label %return

return:                                           ; preds = %if.end, %if.then
  %6 = load ptr, ptr %retval, align 8
  ret ptr %6
}

; Function Attrs: mustprogress nounwind uwtable
define linkonce_odr noundef float @_ZSt3absf(float noundef %__x) #4 comdat {
entry:
  %__x.addr = alloca float, align 4
  store float %__x, ptr %__x.addr, align 4
  %0 = load float, ptr %__x.addr, align 4
  %1 = call float @llvm.fabs.f32(float %0)
  ret float %1
}

; Function Attrs: mustprogress nounwind uwtable
define linkonce_odr noundef zeroext i1 @_ZSt5isinff(float noundef %__x) #4 comdat {
entry:
  %__x.addr = alloca float, align 4
  store float %__x, ptr %__x.addr, align 4
  %0 = load float, ptr %__x.addr, align 4
  %1 = call i1 @llvm.is.fpclass.f32(float %0, i32 516)
  ret i1 %1
}

; Function Attrs: mustprogress nounwind uwtable
define linkonce_odr noundef zeroext i1 @_ZSt5isnanf(float noundef %__x) #4 comdat {
entry:
  %__x.addr = alloca float, align 4
  store float %__x, ptr %__x.addr, align 4
  %0 = load float, ptr %__x.addr, align 4
  %1 = call i1 @llvm.is.fpclass.f32(float %0, i32 3)
  ret i1 %1
}

; Function Attrs: mustprogress uwtable
define linkonce_odr noundef nonnull align 4 dereferenceable(4) ptr @_ZNK8facebook5velox7variant5valueILNS0_8TypeKindE5EEERKDav(ptr noundef nonnull align 8 dereferenceable(16) %this) #0 comdat align 2 {
entry:
  %this.addr = alloca ptr, align 8
  store ptr %this, ptr %this.addr, align 8
  %this1 = load ptr, ptr %this.addr, align 8
  call void @_ZNK8facebook5velox7variant11checkIsKindENS0_8TypeKindE(ptr noundef nonnull align 8 dereferenceable(16) %this1, i8 noundef signext 5)
  call void @_ZNK8facebook5velox7variant8checkPtrEv(ptr noundef nonnull align 8 dereferenceable(16) %this1)
  %ptr_ = getelementptr inbounds %"class.facebook::velox::variant", ptr %this1, i32 0, i32 1
  %0 = load ptr, ptr %ptr_, align 8
  ret ptr %0
}

; Function Attrs: mustprogress uwtable
define internal noundef zeroext i1 @_ZN8facebook5velox12_GLOBAL__N_135equalsFloatingPointWithEpsilonTypedILNS0_8TypeKindE6EdEEbRKNS0_7variantES6_(ptr noundef nonnull align 8 dereferenceable(16) %a, ptr noundef nonnull align 8 dereferenceable(16) %b) #0 {
entry:
  %retval = alloca i1, align 1
  %a.addr = alloca ptr, align 8
  %b.addr = alloca ptr, align 8
  %f1 = alloca double, align 8
  %f2 = alloca double, align 8
  %largest = alloca double, align 8
  %ref.tmp = alloca double, align 8
  %ref.tmp11 = alloca double, align 8
  store ptr %a, ptr %a.addr, align 8
  store ptr %b, ptr %b.addr, align 8
  %0 = load ptr, ptr %a.addr, align 8
  %call = call noundef nonnull align 8 dereferenceable(8) ptr @_ZNK8facebook5velox7variant5valueILNS0_8TypeKindE6EEERKDav(ptr noundef nonnull align 8 dereferenceable(16) %0)
  %1 = load double, ptr %call, align 8
  store double %1, ptr %f1, align 8
  %2 = load ptr, ptr %b.addr, align 8
  %call1 = call noundef nonnull align 8 dereferenceable(8) ptr @_ZNK8facebook5velox7variant5valueILNS0_8TypeKindE6EEERKDav(ptr noundef nonnull align 8 dereferenceable(16) %2)
  %3 = load double, ptr %call1, align 8
  store double %3, ptr %f2, align 8
  %4 = load double, ptr %f1, align 8
  %call2 = call noundef zeroext i1 @_ZSt5isnand(double noundef %4)
  br i1 %call2, label %land.lhs.true, label %if.end

land.lhs.true:                                    ; preds = %entry
  %5 = load double, ptr %f2, align 8
  %call3 = call noundef zeroext i1 @_ZSt5isnand(double noundef %5)
  br i1 %call3, label %if.then, label %if.end

if.then:                                          ; preds = %land.lhs.true
  store i1 true, ptr %retval, align 1
  br label %return

if.end:                                           ; preds = %land.lhs.true, %entry
  %6 = load double, ptr %f1, align 8
  %call4 = call noundef zeroext i1 @_ZSt5isinfd(double noundef %6)
  br i1 %call4, label %if.then5, label %if.end6

if.then5:                                         ; preds = %if.end
  %7 = load double, ptr %f1, align 8
  %8 = load double, ptr %f2, align 8
  %cmp = fcmp oeq double %7, %8
  store i1 %cmp, ptr %retval, align 1
  br label %return

if.end6:                                          ; preds = %if.end
  %9 = load double, ptr %f1, align 8
  %10 = load double, ptr %f2, align 8
  %sub = fsub double %9, %10
  %11 = call double @llvm.fabs.f64(double %sub)
  %cmp7 = fcmp olt double %11, 1.000000e-05
  br i1 %cmp7, label %if.then8, label %if.end9

if.then8:                                         ; preds = %if.end6
  store i1 true, ptr %retval, align 1
  br label %return

if.end9:                                          ; preds = %if.end6
  %12 = load double, ptr %f1, align 8
  %call10 = call noundef double @_ZSt3absd(double noundef %12)
  store double %call10, ptr %ref.tmp, align 8
  %13 = load double, ptr %f2, align 8
  %call12 = call noundef double @_ZSt3absd(double noundef %13)
  store double %call12, ptr %ref.tmp11, align 8
  %call13 = call noundef nonnull align 8 dereferenceable(8) ptr @_ZSt3maxIdERKT_S2_S2_(ptr noundef nonnull align 8 dereferenceable(8) %ref.tmp, ptr noundef nonnull align 8 dereferenceable(8) %ref.tmp11)
  %14 = load double, ptr %call13, align 8
  store double %14, ptr %largest, align 8
  %15 = load double, ptr %f1, align 8
  %16 = load double, ptr %f2, align 8
  %sub14 = fsub double %15, %16
  %17 = call double @llvm.fabs.f64(double %sub14)
  %18 = load double, ptr %largest, align 8
  %mul = fmul double %18, 2.000000e+00
  %mul15 = fmul double %mul, 0x3E80000000000000
  %cmp16 = fcmp ole double %17, %mul15
  store i1 %cmp16, ptr %retval, align 1
  br label %return

return:                                           ; preds = %if.end9, %if.then8, %if.then5, %if.then
  %19 = load i1, ptr %retval, align 1
  ret i1 %19
}

; Function Attrs: mustprogress uwtable
define internal noundef zeroext i1 @_ZN8facebook5velox12_GLOBAL__N_135equalsFloatingPointWithEpsilonTypedILNS0_8TypeKindE5EfEEbRKNS0_7variantES6_(ptr noundef nonnull align 8 dereferenceable(16) %a, ptr noundef nonnull align 8 dereferenceable(16) %b) #0 {
entry:
  %retval = alloca i1, align 1
  %a.addr = alloca ptr, align 8
  %b.addr = alloca ptr, align 8
  %f1 = alloca float, align 4
  %f2 = alloca float, align 4
  %largest = alloca float, align 4
  %ref.tmp = alloca float, align 4
  %ref.tmp11 = alloca float, align 4
  store ptr %a, ptr %a.addr, align 8
  store ptr %b, ptr %b.addr, align 8
  %0 = load ptr, ptr %a.addr, align 8
  %call = call noundef nonnull align 4 dereferenceable(4) ptr @_ZNK8facebook5velox7variant5valueILNS0_8TypeKindE5EEERKDav(ptr noundef nonnull align 8 dereferenceable(16) %0)
  %1 = load float, ptr %call, align 4
  store float %1, ptr %f1, align 4
  %2 = load ptr, ptr %b.addr, align 8
  %call1 = call noundef nonnull align 4 dereferenceable(4) ptr @_ZNK8facebook5velox7variant5valueILNS0_8TypeKindE5EEERKDav(ptr noundef nonnull align 8 dereferenceable(16) %2)
  %3 = load float, ptr %call1, align 4
  store float %3, ptr %f2, align 4
  %4 = load float, ptr %f1, align 4
  %call2 = call noundef zeroext i1 @_ZSt5isnanf(float noundef %4)
  br i1 %call2, label %land.lhs.true, label %if.end

land.lhs.true:                                    ; preds = %entry
  %5 = load float, ptr %f2, align 4
  %call3 = call noundef zeroext i1 @_ZSt5isnanf(float noundef %5)
  br i1 %call3, label %if.then, label %if.end

if.then:                                          ; preds = %land.lhs.true
  store i1 true, ptr %retval, align 1
  br label %return

if.end:                                           ; preds = %land.lhs.true, %entry
  %6 = load float, ptr %f1, align 4
  %call4 = call noundef zeroext i1 @_ZSt5isinff(float noundef %6)
  br i1 %call4, label %if.then5, label %if.end6

if.then5:                                         ; preds = %if.end
  %7 = load float, ptr %f1, align 4
  %8 = load float, ptr %f2, align 4
  %cmp = fcmp oeq float %7, %8
  store i1 %cmp, ptr %retval, align 1
  br label %return

if.end6:                                          ; preds = %if.end
  %9 = load float, ptr %f1, align 4
  %10 = load float, ptr %f2, align 4
  %sub = fsub float %9, %10
  %conv = fpext float %sub to double
  %11 = call double @llvm.fabs.f64(double %conv)
  %cmp7 = fcmp olt double %11, 1.000000e-05
  br i1 %cmp7, label %if.then8, label %if.end9

if.then8:                                         ; preds = %if.end6
  store i1 true, ptr %retval, align 1
  br label %return

if.end9:                                          ; preds = %if.end6
  %12 = load float, ptr %f1, align 4
  %call10 = call noundef float @_ZSt3absf(float noundef %12)
  store float %call10, ptr %ref.tmp, align 4
  %13 = load float, ptr %f2, align 4
  %call12 = call noundef float @_ZSt3absf(float noundef %13)
  store float %call12, ptr %ref.tmp11, align 4
  %call13 = call noundef nonnull align 4 dereferenceable(4) ptr @_ZSt3maxIfERKT_S2_S2_(ptr noundef nonnull align 4 dereferenceable(4) %ref.tmp, ptr noundef nonnull align 4 dereferenceable(4) %ref.tmp11)
  %14 = load float, ptr %call13, align 4
  store float %14, ptr %largest, align 4
  %15 = load float, ptr %f1, align 4
  %16 = load float, ptr %f2, align 4
  %sub14 = fsub float %15, %16
  %conv15 = fpext float %sub14 to double
  %17 = call double @llvm.fabs.f64(double %conv15)
  %18 = load float, ptr %largest, align 4
  %mul = fmul float %18, 2.000000e+00
  %mul16 = fmul float %mul, 0x3E80000000000000
  %conv17 = fpext float %mul16 to double
  %cmp18 = fcmp ole double %17, %conv17
  store i1 %cmp18, ptr %retval, align 1
  br label %return

return:                                           ; preds = %if.end9, %if.then8, %if.then5, %if.then
  %19 = load i1, ptr %retval, align 1
  ret i1 %19
}

; Function Attrs: mustprogress nounwind uwtable
define linkonce_odr noundef signext i8 @_ZNK8facebook5velox7variant4kindEv(ptr noundef nonnull align 8 dereferenceable(16) %this) #4 comdat align 2 {
entry:
  %this.addr = alloca ptr, align 8
  store ptr %this, ptr %this.addr, align 8
  %this1 = load ptr, ptr %this.addr, align 8
  %kind_ = getelementptr inbounds %"class.facebook::velox::variant", ptr %this1, i32 0, i32 0
  %0 = load i8, ptr %kind_, align 8
  ret i8 %0
}

; Function Attrs: mustprogress nounwind uwtable
define linkonce_odr noundef zeroext i1 @_ZNK8facebook5velox7variant6isNullEv(ptr noundef nonnull align 8 dereferenceable(16) %this) #4 comdat align 2 {
entry:
  %this.addr = alloca ptr, align 8
  store ptr %this, ptr %this.addr, align 8
  %this1 = load ptr, ptr %this.addr, align 8
  %ptr_ = getelementptr inbounds %"class.facebook::velox::variant", ptr %this1, i32 0, i32 1
  %0 = load ptr, ptr %ptr_, align 8
  %cmp = icmp eq ptr %0, null
  ret i1 %cmp
}

; Function Attrs: mustprogress uwtable
define internal noundef zeroext i1 @_ZN8facebook5velox12_GLOBAL__N_130equalsFloatingPointWithEpsilonERKNS0_7variantES4_(ptr noundef nonnull align 8 dereferenceable(16) %a, ptr noundef nonnull align 8 dereferenceable(16) %b) #0 {
entry:
  %retval = alloca i1, align 1
  %a.addr = alloca ptr, align 8
  %b.addr = alloca ptr, align 8
  store ptr %a, ptr %a.addr, align 8
  store ptr %b, ptr %b.addr, align 8
  %0 = load ptr, ptr %a.addr, align 8
  %call = call noundef zeroext i1 @_ZNK8facebook5velox7variant6isNullEv(ptr noundef nonnull align 8 dereferenceable(16) %0)
  br i1 %call, label %if.then, label %lor.lhs.false

lor.lhs.false:                                    ; preds = %entry
  %1 = load ptr, ptr %b.addr, align 8
  %call1 = call noundef zeroext i1 @_ZNK8facebook5velox7variant6isNullEv(ptr noundef nonnull align 8 dereferenceable(16) %1)
  br i1 %call1, label %if.then, label %if.end

if.then:                                          ; preds = %lor.lhs.false, %entry
  store i1 false, ptr %retval, align 1
  br label %return

if.end:                                           ; preds = %lor.lhs.false
  %2 = load ptr, ptr %a.addr, align 8
  %call2 = call noundef signext i8 @_ZNK8facebook5velox7variant4kindEv(ptr noundef nonnull align 8 dereferenceable(16) %2)
  %cmp = icmp eq i8 %call2, 5
  br i1 %cmp, label %if.then3, label %if.else

if.then3:                                         ; preds = %if.end
  %3 = load ptr, ptr %a.addr, align 8
  %4 = load ptr, ptr %b.addr, align 8
  %call4 = call noundef zeroext i1 @_ZN8facebook5velox12_GLOBAL__N_135equalsFloatingPointWithEpsilonTypedILNS0_8TypeKindE5EfEEbRKNS0_7variantES6_(ptr noundef nonnull align 8 dereferenceable(16) %3, ptr noundef nonnull align 8 dereferenceable(16) %4)
  store i1 %call4, ptr %retval, align 1
  br label %return

if.else:                                          ; preds = %if.end
  %5 = load ptr, ptr %a.addr, align 8
  %call5 = call noundef signext i8 @_ZNK8facebook5velox7variant4kindEv(ptr noundef nonnull align 8 dereferenceable(16) %5)
  %cmp6 = icmp eq i8 %call5, 6
  %lnot = xor i1 %cmp6, true
  br i1 %lnot, label %if.then7, label %if.end8

if.then7:                                         ; preds = %if.else
  call void @llvm.trap()
  br label %if.end8

if.end8:                                          ; preds = %if.then7, %if.else
  %6 = load ptr, ptr %a.addr, align 8
  %7 = load ptr, ptr %b.addr, align 8
  %call9 = call noundef zeroext i1 @_ZN8facebook5velox12_GLOBAL__N_135equalsFloatingPointWithEpsilonTypedILNS0_8TypeKindE6EdEEbRKNS0_7variantES6_(ptr noundef nonnull align 8 dereferenceable(16) %6, ptr noundef nonnull align 8 dereferenceable(16) %7)
  store i1 %call9, ptr %retval, align 1
  br label %return

return:                                           ; preds = %if.end8, %if.then3, %if.then
  %8 = load i1, ptr %retval, align 1
  ret i1 %8
}