; Function Attrs: mustprogress uwtable
define internal fastcc noundef zeroext i1 @_ZN8facebook5velox12_GLOBAL__N_130equalsFloatingPointWithEpsilonERKNS0_7variantES4_(ptr nocapture noundef nonnull readonly align 8 dereferenceable(16) %a, ptr noundef nonnull align 8 dereferenceable(16) %b) unnamed_addr #0 {
entry:
  %ptr_.i = getelementptr inbounds i8, ptr %a, i64 8
  %0 = load ptr, ptr %ptr_.i, align 8
  %cmp.i = icmp eq ptr %0, null
  br i1 %cmp.i, label %return, label %lor.lhs.false

lor.lhs.false:                                    ; preds = %entry
  %ptr_.i7 = getelementptr inbounds i8, ptr %b, i64 8
  %1 = load ptr, ptr %ptr_.i7, align 8
  %cmp.i8 = icmp eq ptr %1, null
  br i1 %cmp.i8, label %return, label %if.end

if.end:                                           ; preds = %lor.lhs.false
  %2 = load i8, ptr %a, align 8
  switch i8 %2, label %if.then7 [
    i8 5, label %_ZNK8facebook5velox7variant5valueILNS0_8TypeKindE5EEERKDav.exit.i
    i8 6, label %_ZNK8facebook5velox7variant5valueILNS0_8TypeKindE6EEERKDav.exit.i
  ]

_ZNK8facebook5velox7variant5valueILNS0_8TypeKindE5EEERKDav.exit.i: ; preds = %if.end
  %3 = load float, ptr %0, align 4
  %4 = load i8, ptr %b, align 8
  %cmp.not.i.i10.i = icmp eq i8 %4, 5
  br i1 %cmp.not.i.i10.i, label %_ZNK8facebook5velox7variant5valueILNS0_8TypeKindE5EEERKDav.exit16.i, label %if.then.i.i11.i

if.then.i.i11.i:                                  ; preds = %_ZNK8facebook5velox7variant5valueILNS0_8TypeKindE5EEERKDav.exit.i
  tail call void @_ZNK8facebook5velox7variant21throwCheckIsKindErrorENS0_8TypeKindE(ptr noundef nonnull align 8 dereferenceable(16) %b, i8 noundef signext 5) #26
  unreachable

_ZNK8facebook5velox7variant5valueILNS0_8TypeKindE5EEERKDav.exit16.i: ; preds = %_ZNK8facebook5velox7variant5valueILNS0_8TypeKindE5EEERKDav.exit.i
  %5 = load float, ptr %1, align 4
  %6 = fcmp uno float %3, 0.000000e+00
  %7 = fcmp uno float %5, 0.000000e+00
  %or.cond.i = select i1 %6, i1 %7, i1 false
  br i1 %or.cond.i, label %return, label %if.end.i

if.end.i:                                         ; preds = %_ZNK8facebook5velox7variant5valueILNS0_8TypeKindE5EEERKDav.exit16.i
  %8 = tail call float @llvm.fabs.f32(float %3)
  %9 = fcmp oeq float %8, 0x7FF0000000000000
  br i1 %9, label %if.then5.i, label %if.end6.i

if.then5.i:                                       ; preds = %if.end.i
  %cmp.i9 = fcmp oeq float %3, %5
  br label %return

if.end6.i:                                        ; preds = %if.end.i
  %sub.i = fsub float %3, %5
  %10 = tail call float @llvm.fabs.f32(float %sub.i)
  %11 = fpext float %10 to double
  %cmp7.i = fcmp olt double %11, 1.000000e-05
  br i1 %cmp7.i, label %return, label %if.end9.i

if.end9.i:                                        ; preds = %if.end6.i
  %12 = tail call noundef float @llvm.fabs.f32(float %5)
  %cmp.i.i = fcmp olt float %8, %12
  %.sroa.speculated.i = select i1 %cmp.i.i, float %12, float %8
  %mul.i = fmul float %.sroa.speculated.i, 2.000000e+00
  %mul16.i = fmul float %mul.i, 0x3E80000000000000
  %cmp18.i = fcmp ole float %10, %mul16.i
  br label %return

if.then7:                                         ; preds = %if.end
  tail call void @llvm.trap()
  unreachable

_ZNK8facebook5velox7variant5valueILNS0_8TypeKindE6EEERKDav.exit.i: ; preds = %if.end
  %13 = load double, ptr %0, align 8
  %14 = load i8, ptr %b, align 8
  %cmp.not.i.i10.i15 = icmp eq i8 %14, 6
  br i1 %cmp.not.i.i10.i15, label %_ZNK8facebook5velox7variant5valueILNS0_8TypeKindE6EEERKDav.exit16.i, label %if.then.i.i11.i16

if.then.i.i11.i16:                                ; preds = %_ZNK8facebook5velox7variant5valueILNS0_8TypeKindE6EEERKDav.exit.i
  tail call void @_ZNK8facebook5velox7variant21throwCheckIsKindErrorENS0_8TypeKindE(ptr noundef nonnull align 8 dereferenceable(16) %b, i8 noundef signext 6) #26
  unreachable

_ZNK8facebook5velox7variant5valueILNS0_8TypeKindE6EEERKDav.exit16.i: ; preds = %_ZNK8facebook5velox7variant5valueILNS0_8TypeKindE6EEERKDav.exit.i
  %15 = load double, ptr %1, align 8
  %16 = fcmp uno double %13, 0.000000e+00
  %17 = fcmp uno double %15, 0.000000e+00
  %or.cond.i20 = select i1 %16, i1 %17, i1 false
  br i1 %or.cond.i20, label %return, label %if.end.i21

if.end.i21:                                       ; preds = %_ZNK8facebook5velox7variant5valueILNS0_8TypeKindE6EEERKDav.exit16.i
  %18 = tail call double @llvm.fabs.f64(double %13)
  %19 = fcmp oeq double %18, 0x7FF0000000000000
  br i1 %19, label %if.then5.i30, label %if.end6.i22

if.then5.i30:                                     ; preds = %if.end.i21
  %cmp.i31 = fcmp oeq double %13, %15
  br label %return

if.end6.i22:                                      ; preds = %if.end.i21
  %sub.i23 = fsub double %13, %15
  %20 = tail call double @llvm.fabs.f64(double %sub.i23)
  %cmp7.i24 = fcmp olt double %20, 1.000000e-05
  br i1 %cmp7.i24, label %return, label %if.end9.i25

if.end9.i25:                                      ; preds = %if.end6.i22
  %21 = tail call noundef double @llvm.fabs.f64(double %15)
  %cmp.i.i26 = fcmp olt double %18, %21
  %.sroa.speculated.i27 = select i1 %cmp.i.i26, double %21, double %18
  %mul.i28 = fmul double %.sroa.speculated.i27, 2.000000e+00
  %mul15.i = fmul double %mul.i28, 0x3E80000000000000
  %cmp16.i = fcmp ole double %20, %mul15.i
  br label %return

return:                                           ; preds = %if.end9.i25, %if.end6.i22, %if.then5.i30, %_ZNK8facebook5velox7variant5valueILNS0_8TypeKindE6EEERKDav.exit16.i, %if.end9.i, %if.end6.i, %if.then5.i, %_ZNK8facebook5velox7variant5valueILNS0_8TypeKindE5EEERKDav.exit16.i, %entry, %lor.lhs.false
  %retval.0 = phi i1 [ false, %lor.lhs.false ], [ false, %entry ], [ %cmp.i9, %if.then5.i ], [ %cmp18.i, %if.end9.i ], [ true, %if.end6.i ], [ true, %_ZNK8facebook5velox7variant5valueILNS0_8TypeKindE5EEERKDav.exit16.i ], [ %cmp.i31, %if.then5.i30 ], [ %cmp16.i, %if.end9.i25 ], [ true, %if.end6.i22 ], [ true, %_ZNK8facebook5velox7variant5valueILNS0_8TypeKindE6EEERKDav.exit16.i ]
  ret i1 %retval.0
}